; ModuleID = '22/538.c'
source_filename = "22/538.c"
target datalayout = "e-m:e-p270:32:32-p271:32:32-p272:64:64-i64:64-f80:128-n8:16:32:64-S128"
target triple = "x86_64-pc-linux-gnu"

@.str = private unnamed_addr constant [3 x i8] c"%d\00", align 1
@.str.1 = private unnamed_addr constant [3 x i8] c"%c\00", align 1
@.str.2 = private unnamed_addr constant [3 x i8] c"No\00", align 1

; Function Attrs: noinline nounwind uwtable
define dso_local i32 @main() #0 {
  %1 = alloca i32, align 4
  %2 = alloca i32, align 4
  %3 = alloca i32, align 4
  %4 = alloca i32, align 4
  %5 = alloca i32, align 4
  %6 = alloca i8, align 1
  store i32 0, i32* %1, align 4
  store i32 -1, i32* %4, align 4
  %7 = call i32 (i8*, ...) @__isoc99_scanf(i8* getelementptr inbounds ([3 x i8], [3 x i8]* @.str, i64 0, i64 0), i32* %3)
  store i32 0, i32* %5, align 4
  br label %8

8:                                                ; preds = %39, %0
  %9 = load i32, i32* %5, align 4
  %10 = icmp slt i32 %9, 300
  br i1 %10, label %11, label %42

11:                                               ; preds = %8
  %12 = call i32 (i8*, ...) @__isoc99_scanf(i8* getelementptr inbounds ([3 x i8], [3 x i8]* @.str.1, i64 0, i64 0), i8* %6)
  %13 = load i8, i8* %6, align 1
  %14 = sext i8 %13 to i32
  %15 = icmp eq i32 %14, 10
  br i1 %15, label %16, label %17

16:                                               ; preds = %11
  br label %42

17:                                               ; preds = %11
  %18 = call i32 (i8*, ...) @__isoc99_scanf(i8* getelementptr inbounds ([3 x i8], [3 x i8]* @.str, i64 0, i64 0), i32* %2)
  %19 = load i32, i32* %2, align 4
  %20 = load i32, i32* %3, align 4
  %21 = icmp sgt i32 %19, %20
  br i1 %21, label %22, label %25

22:                                               ; preds = %17
  %23 = load i32, i32* %3, align 4
  store i32 %23, i32* %4, align 4
  %24 = load i32, i32* %2, align 4
  store i32 %24, i32* %3, align 4
  br label %38

25:                                               ; preds = %17
  %26 = load i32, i32* %2, align 4
  %27 = load i32, i32* %3, align 4
  %28 = icmp eq i32 %26, %27
  br i1 %28, label %29, label %30

29:                                               ; preds = %25
  br label %39

30:                                               ; preds = %25
  %31 = load i32, i32* %2, align 4
  %32 = load i32, i32* %4, align 4
  %33 = icmp sgt i32 %31, %32
  br i1 %33, label %34, label %36

34:                                               ; preds = %30
  %35 = load i32, i32* %2, align 4
  store i32 %35, i32* %4, align 4
  br label %36

36:                                               ; preds = %34, %30
  br label %37

37:                                               ; preds = %36
  br label %38

38:                                               ; preds = %37, %22
  br label %39

39:                                               ; preds = %38, %29
  %40 = load i32, i32* %5, align 4
  %41 = add nsw i32 %40, 1
  store i32 %41, i32* %5, align 4
  br label %8

42:                                               ; preds = %16, %8
  %43 = load i32, i32* %4, align 4
  %44 = icmp eq i32 %43, -1
  br i1 %44, label %45, label %47

45:                                               ; preds = %42
  %46 = call i32 (i8*, ...) @printf(i8* getelementptr inbounds ([3 x i8], [3 x i8]* @.str.2, i64 0, i64 0))
  br label %57

47:                                               ; preds = %42
  %48 = load i32, i32* %3, align 4
  %49 = load i32, i32* %4, align 4
  %50 = icmp eq i32 %48, %49
  br i1 %50, label %51, label %53

51:                                               ; preds = %47
  %52 = call i32 (i8*, ...) @printf(i8* getelementptr inbounds ([3 x i8], [3 x i8]* @.str.2, i64 0, i64 0))
  br label %56

53:                                               ; preds = %47
  %54 = load i32, i32* %4, align 4
  %55 = call i32 (i8*, ...) @printf(i8* getelementptr inbounds ([3 x i8], [3 x i8]* @.str, i64 0, i64 0), i32 %54)
  br label %56

56:                                               ; preds = %53, %51
  br label %57

57:                                               ; preds = %56, %45
  ret i32 0
}

declare dso_local i32 @__isoc99_scanf(i8*, ...) #1

declare dso_local i32 @printf(i8*, ...) #1


!llvm.module.flags = !{!0}
!llvm.ident = !{!1}

!0 = !{i32 1, !"wchar_size", i32 4}
!1 = !{!"clang version 10.0.0-4ubuntu1 "}
