; ModuleID = 'source-C-CXX/21/538.c'
source_filename = "source-C-CXX/21/538.c"
target datalayout = "e-m:e-p270:32:32-p271:32:32-p272:64:64-i64:64-f80:128-n8:16:32:64-S128"
target triple = "x86_64-pc-linux-gnu"

@.str = private unnamed_addr constant [3 x i8] c"%d\00", align 1
@.str.1 = private unnamed_addr constant [3 x i8] c"%c\00", align 1
@.str.2 = private unnamed_addr constant [3 x i8] c"No\00", align 1

; Function Attrs: nofree nounwind sspstrong uwtable
define dso_local i32 @main() local_unnamed_addr #0 {
  %1 = alloca i32, align 4
  %2 = alloca i32, align 4
  %3 = alloca i8, align 1
  %4 = bitcast i32* %1 to i8*
  call void @llvm.lifetime.start.p0i8(i64 4, i8* nonnull %4) #3
  %5 = bitcast i32* %2 to i8*
  call void @llvm.lifetime.start.p0i8(i64 4, i8* nonnull %5) #3
  call void @llvm.lifetime.start.p0i8(i64 1, i8* nonnull %3) #3
  %6 = call i32 (i8*, ...) @__isoc99_scanf(i8* getelementptr inbounds ([3 x i8], [3 x i8]* @.str, i64 0, i64 0), i32* nonnull %2)
  br label %7

7:                                                ; preds = %0, %24
  %8 = phi i32 [ 0, %0 ], [ %26, %24 ]
  %9 = phi i32 [ -1, %0 ], [ %25, %24 ]
  %10 = call i32 (i8*, ...) @__isoc99_scanf(i8* getelementptr inbounds ([3 x i8], [3 x i8]* @.str.1, i64 0, i64 0), i8* nonnull %3)
  %11 = load i8, i8* %3, align 1, !tbaa !5
  %12 = icmp eq i8 %11, 10
  br i1 %12, label %28, label %13

13:                                               ; preds = %7
  %14 = call i32 (i8*, ...) @__isoc99_scanf(i8* getelementptr inbounds ([3 x i8], [3 x i8]* @.str, i64 0, i64 0), i32* nonnull %1)
  %15 = load i32, i32* %1, align 4, !tbaa !8
  %16 = load i32, i32* %2, align 4, !tbaa !8
  %17 = icmp sgt i32 %15, %16
  br i1 %17, label %18, label %19

18:                                               ; preds = %13
  store i32 %15, i32* %2, align 4, !tbaa !8
  br label %24

19:                                               ; preds = %13
  %20 = icmp ne i32 %15, %16
  %21 = icmp sgt i32 %15, %9
  %22 = select i1 %20, i1 %21, i1 false
  %23 = select i1 %22, i32 %15, i32 %9
  br label %24

24:                                               ; preds = %19, %18
  %25 = phi i32 [ %16, %18 ], [ %23, %19 ]
  %26 = add nuw nsw i32 %8, 1
  %27 = icmp eq i32 %26, 300
  br i1 %27, label %28, label %7, !llvm.loop !10

28:                                               ; preds = %7, %24
  %29 = phi i32 [ %9, %7 ], [ %25, %24 ]
  %30 = icmp eq i32 %29, -1
  br i1 %30, label %31, label %33

31:                                               ; preds = %28
  %32 = call i32 (i8*, ...) @printf(i8* nonnull dereferenceable(1) getelementptr inbounds ([3 x i8], [3 x i8]* @.str.2, i64 0, i64 0))
  br label %40

33:                                               ; preds = %28
  %34 = load i32, i32* %2, align 4, !tbaa !8
  %35 = icmp eq i32 %34, %29
  br i1 %35, label %36, label %38

36:                                               ; preds = %33
  %37 = call i32 (i8*, ...) @printf(i8* nonnull dereferenceable(1) getelementptr inbounds ([3 x i8], [3 x i8]* @.str.2, i64 0, i64 0))
  br label %40

38:                                               ; preds = %33
  %39 = call i32 (i8*, ...) @printf(i8* nonnull dereferenceable(1) getelementptr inbounds ([3 x i8], [3 x i8]* @.str, i64 0, i64 0), i32 %29)
  br label %40

40:                                               ; preds = %36, %38, %31
  call void @llvm.lifetime.end.p0i8(i64 1, i8* nonnull %3) #3
  call void @llvm.lifetime.end.p0i8(i64 4, i8* nonnull %5) #3
  call void @llvm.lifetime.end.p0i8(i64 4, i8* nonnull %4) #3
  ret i32 0
}

; Function Attrs: argmemonly mustprogress nofree nosync nounwind willreturn
declare void @llvm.lifetime.start.p0i8(i64 immarg, i8* nocapture) #1

; Function Attrs: nofree nounwind
declare noundef i32 @__isoc99_scanf(i8* nocapture noundef readonly, ...) local_unnamed_addr #2

; Function Attrs: nofree nounwind
declare noundef i32 @printf(i8* nocapture noundef readonly, ...) local_unnamed_addr #2

; Function Attrs: argmemonly mustprogress nofree nosync nounwind willreturn
declare void @llvm.lifetime.end.p0i8(i64 immarg, i8* nocapture) #1


!llvm.module.flags = !{!0, !1, !2, !3}
!llvm.ident = !{!4}

!0 = !{i32 1, !"wchar_size", i32 4}
!1 = !{i32 7, !"PIC Level", i32 2}
!2 = !{i32 7, !"PIE Level", i32 2}
!3 = !{i32 7, !"uwtable", i32 1}
!4 = !{!"clang version 13.0.0"}
!5 = !{!6, !6, i64 0}
!6 = !{!"omnipotent char", !7, i64 0}
!7 = !{!"Simple C/C++ TBAA"}
!8 = !{!9, !9, i64 0}
!9 = !{!"int", !6, i64 0}
!10 = distinct !{!10, !11}
!11 = !{!"llvm.loop.mustprogress"}
